target datalayout = "e-m:e-p270:32:32-p271:32:32-p272:64:64-i64:64-i128:128-f80:128-n8:16:32:64-S128"
target triple = "x86_64-pc-linux-gnu"

%struct._packet_info = type { ptr, ptr, i32, i32, %struct.nstime_t, %struct.nstime_t, %struct.nstime_t, i8, ptr, ptr, ptr, ptr, %struct._address, %struct._address, %struct._address, %struct._address, %struct._address, %struct._address, i32, ptr, i8, [3 x i8], %struct.anon, i32, i32, i32, i32, ptr, i8, ptr, ptr, i16, i16, i32, i32, i16, i32, i32, ptr, ptr, ptr, i8, i8, i16, i16, i16, i32, i16, i16, ptr, ptr, ptr, ptr, ptr, i32, i32 }
%struct.nstime_t = type { i64, i32 }
%struct._address = type { i32, i32, ptr, ptr }
%struct.anon = type { i8, [3 x i8] }
%struct._ndmp_conv_data_t = type { i8, ptr, ptr, ptr, ptr, ptr, ptr }

@hf_ndmp_error = internal global i32 0, align 4
@hf_ndmp_mover_state = internal global i32 0, align 4
@hf_ndmp_mover_pause = internal global i32 0, align 4
@hf_ndmp_halt = internal global i32 0, align 4
@hf_ndmp_record_size = internal global i32 0, align 4
@hf_ndmp_record_num = internal global i32 0, align 4
@hf_ndmp_data_written = internal global i32 0, align 4
@hf_ndmp_seek_position = internal global i32 0, align 4
@hf_ndmp_bytes_left_to_read = internal global i32 0, align 4
@hf_ndmp_window_offset = internal global i32 0, align 4
@hf_ndmp_window_length = internal global i32 0, align 4
@hf_ndmp_mover_mode = internal global i32 0, align 4
@ndmp_default_protocol_version = internal global i32 4, align 4
@ndmp_conv_data = internal global ptr null, align 8
@.str.749 = private unnamed_addr constant [16 x i8] c" NDMP Error:%s \00", align 1
@.str.750 = private unnamed_addr constant [28 x i8] c"Unknown NDMP error code %#x\00", align 1

; Function Attrs: nounwind null_pointer_is_valid sspstrong uwtable
define internal zeroext i8 @get_ndmp_protocol_version() #8 {
  %1 = alloca i8, align 1
  %2 = load ptr, ptr @ndmp_conv_data, align 8
  %3 = icmp ne ptr %2, null
  br i1 %3, label %4, label %10

4:                                                ; preds = %0
  %5 = load ptr, ptr @ndmp_conv_data, align 8
  %6 = getelementptr inbounds nuw %struct._ndmp_conv_data_t, ptr %5, i32 0, i32 0
  %7 = load i8, ptr %6, align 8
  %8 = zext i8 %7 to i32
  %9 = icmp eq i32 %8, 0
  br i1 %9, label %10, label %13

10:                                               ; preds = %4, %0
  %11 = load i32, ptr @ndmp_default_protocol_version, align 4
  %12 = trunc i32 %11 to i8
  store i8 %12, ptr %1, align 1
  br label %17

13:                                               ; preds = %4
  %14 = load ptr, ptr @ndmp_conv_data, align 8
  %15 = getelementptr inbounds nuw %struct._ndmp_conv_data_t, ptr %14, i32 0, i32 0
  %16 = load i8, ptr %15, align 8
  store i8 %16, ptr %1, align 1
  br label %17

17:                                               ; preds = %13, %10
  %18 = load i8, ptr %1, align 1
  ret i8 %18
}

; Function Attrs: null_pointer_is_valid sspstrong uwtable
define internal i32 @dissect_error(ptr noundef %0, i32 noundef %1, ptr noundef %2, ptr noundef %3, i32 noundef %4) #0 {
  %6 = alloca ptr, align 8
  %7 = alloca i32, align 4
  %8 = alloca ptr, align 8
  %9 = alloca ptr, align 8
  %10 = alloca i32, align 4
  %11 = alloca i32, align 4
  store ptr %0, ptr %6, align 8
  store i32 %1, ptr %7, align 4
  store ptr %2, ptr %8, align 8
  store ptr %3, ptr %9, align 8
  store i32 %4, ptr %10, align 4
  call void @llvm.lifetime.start.p0(i64 4, ptr %11) #9
  %12 = load ptr, ptr %6, align 8
  %13 = load i32, ptr %7, align 4
  %14 = call i32 @tvb_get_ntohl(ptr noundef %12, i32 noundef %13)
  store i32 %14, ptr %11, align 4
  %15 = load ptr, ptr %9, align 8
  %16 = load i32, ptr @hf_ndmp_error, align 4
  %17 = load ptr, ptr %6, align 8
  %18 = load i32, ptr %7, align 4
  %19 = call ptr @proto_tree_add_item(ptr noundef %15, i32 noundef %16, ptr noundef %17, i32 noundef %18, i32 noundef 4, i32 noundef 0)
  %20 = load i32, ptr %11, align 4
  %21 = icmp ne i32 %20, 0
  br i1 %21, label %22, label %28

22:                                               ; preds = %5
  %23 = load ptr, ptr %8, align 8
  %24 = getelementptr inbounds nuw %struct._packet_info, ptr %23, i32 0, i32 1
  %25 = load ptr, ptr %24, align 8
  %26 = load i32, ptr %11, align 4
  %27 = call ptr @val_to_str(i32 noundef %26, ptr noundef @error_vals, ptr noundef @.str.750)
  call void (ptr, i32, ptr, ...) @col_append_fstr(ptr noundef %25, i32 noundef 25, ptr noundef @.str.749, ptr noundef %27)
  br label %28

28:                                               ; preds = %22, %5
  %29 = load i32, ptr %7, align 4
  %30 = add i32 %29, 4
  store i32 %30, ptr %7, align 4
  %31 = load i32, ptr %7, align 4
  call void @llvm.lifetime.end.p0(i64 4, ptr %11) #9
  ret i32 %31
}

; Function Attrs: null_pointer_is_valid sspstrong uwtable
define internal i32 @dissect_mover_get_state_reply(ptr noundef %0, i32 noundef %1, ptr noundef %2, ptr noundef %3, i32 noundef %4) #0 {
  %6 = alloca i32, align 4
  %7 = alloca ptr, align 8
  %8 = alloca i32, align 4
  %9 = alloca ptr, align 8
  %10 = alloca ptr, align 8
  %11 = alloca i32, align 4
  store ptr %0, ptr %7, align 8
  store i32 %1, ptr %8, align 4
  store ptr %2, ptr %9, align 8
  store ptr %3, ptr %10, align 8
  store i32 %4, ptr %11, align 4
  %12 = load ptr, ptr %7, align 8
  %13 = load i32, ptr %8, align 4
  %14 = load ptr, ptr %9, align 8
  %15 = load ptr, ptr %10, align 8
  %16 = load i32, ptr %11, align 4
  %17 = call i32 @dissect_error(ptr noundef %12, i32 noundef %13, ptr noundef %14, ptr noundef %15, i32 noundef %16)
  store i32 %17, ptr %8, align 4
  %18 = call zeroext i8 @get_ndmp_protocol_version()
  %19 = zext i8 %18 to i32
  %20 = icmp sge i32 %19, 4
  br i1 %20, label %21, label %29

21:                                               ; preds = %5
  %22 = load ptr, ptr %10, align 8
  %23 = load i32, ptr @hf_ndmp_mover_mode, align 4
  %24 = load ptr, ptr %7, align 8
  %25 = load i32, ptr %8, align 4
  %26 = call ptr @proto_tree_add_item(ptr noundef %22, i32 noundef %23, ptr noundef %24, i32 noundef %25, i32 noundef 4, i32 noundef 0)
  %27 = load i32, ptr %8, align 4
  %28 = add i32 %27, 4
  store i32 %28, ptr %8, align 4
  br label %29

29:                                               ; preds = %21, %5
  %30 = load ptr, ptr %10, align 8
  %31 = load i32, ptr @hf_ndmp_mover_state, align 4
  %32 = load ptr, ptr %7, align 8
  %33 = load i32, ptr %8, align 4
  %34 = call ptr @proto_tree_add_item(ptr noundef %30, i32 noundef %31, ptr noundef %32, i32 noundef %33, i32 noundef 4, i32 noundef 0)
  %35 = load i32, ptr %8, align 4
  %36 = add i32 %35, 4
  store i32 %36, ptr %8, align 4
  %37 = load ptr, ptr %10, align 8
  %38 = load i32, ptr @hf_ndmp_mover_pause, align 4
  %39 = load ptr, ptr %7, align 8
  %40 = load i32, ptr %8, align 4
  %41 = call ptr @proto_tree_add_item(ptr noundef %37, i32 noundef %38, ptr noundef %39, i32 noundef %40, i32 noundef 4, i32 noundef 0)
  %42 = load i32, ptr %8, align 4
  %43 = add i32 %42, 4
  store i32 %43, ptr %8, align 4
  %44 = load ptr, ptr %10, align 8
  %45 = load i32, ptr @hf_ndmp_halt, align 4
  %46 = load ptr, ptr %7, align 8
  %47 = load i32, ptr %8, align 4
  %48 = call ptr @proto_tree_add_item(ptr noundef %44, i32 noundef %45, ptr noundef %46, i32 noundef %47, i32 noundef 4, i32 noundef 0)
  %49 = load i32, ptr %8, align 4
  %50 = add i32 %49, 4
  store i32 %50, ptr %8, align 4
  %51 = load ptr, ptr %10, align 8
  %52 = load i32, ptr @hf_ndmp_record_size, align 4
  %53 = load ptr, ptr %7, align 8
  %54 = load i32, ptr %8, align 4
  %55 = call ptr @proto_tree_add_item(ptr noundef %51, i32 noundef %52, ptr noundef %53, i32 noundef %54, i32 noundef 4, i32 noundef 0)
  %56 = load i32, ptr %8, align 4
  %57 = add i32 %56, 4
  store i32 %57, ptr %8, align 4
  %58 = load ptr, ptr %10, align 8
  %59 = load i32, ptr @hf_ndmp_record_num, align 4
  %60 = load ptr, ptr %7, align 8
  %61 = load i32, ptr %8, align 4
  %62 = call ptr @proto_tree_add_item(ptr noundef %58, i32 noundef %59, ptr noundef %60, i32 noundef %61, i32 noundef 4, i32 noundef 0)
  %63 = load i32, ptr %8, align 4
  %64 = add i32 %63, 4
  store i32 %64, ptr %8, align 4
  %65 = load ptr, ptr %10, align 8
  %66 = load i32, ptr @hf_ndmp_data_written, align 4
  %67 = load ptr, ptr %7, align 8
  %68 = load i32, ptr %8, align 4
  %69 = call ptr @proto_tree_add_item(ptr noundef %65, i32 noundef %66, ptr noundef %67, i32 noundef %68, i32 noundef 8, i32 noundef 0)
  %70 = load i32, ptr %8, align 4
  %71 = add i32 %70, 8
  store i32 %71, ptr %8, align 4
  %72 = load ptr, ptr %10, align 8
  %73 = load i32, ptr @hf_ndmp_seek_position, align 4
  %74 = load ptr, ptr %7, align 8
  %75 = load i32, ptr %8, align 4
  %76 = call ptr @proto_tree_add_item(ptr noundef %72, i32 noundef %73, ptr noundef %74, i32 noundef %75, i32 noundef 8, i32 noundef 0)
  %77 = load i32, ptr %8, align 4
  %78 = add i32 %77, 8
  store i32 %78, ptr %8, align 4
  %79 = load ptr, ptr %10, align 8
  %80 = load i32, ptr @hf_ndmp_bytes_left_to_read, align 4
  %81 = load ptr, ptr %7, align 8
  %82 = load i32, ptr %8, align 4
  %83 = call ptr @proto_tree_add_item(ptr noundef %79, i32 noundef %80, ptr noundef %81, i32 noundef %82, i32 noundef 8, i32 noundef 0)
  %84 = load i32, ptr %8, align 4
  %85 = add i32 %84, 8
  store i32 %85, ptr %8, align 4
  %86 = load ptr, ptr %10, align 8
  %87 = load i32, ptr @hf_ndmp_window_offset, align 4
  %88 = load ptr, ptr %7, align 8
  %89 = load i32, ptr %8, align 4
  %90 = call ptr @proto_tree_add_item(ptr noundef %86, i32 noundef %87, ptr noundef %88, i32 noundef %89, i32 noundef 8, i32 noundef 0)
  %91 = load i32, ptr %8, align 4
  %92 = add i32 %91, 8
  store i32 %92, ptr %8, align 4
  %93 = load ptr, ptr %10, align 8
  %94 = load i32, ptr @hf_ndmp_window_length, align 4
  %95 = load ptr, ptr %7, align 8
  %96 = load i32, ptr %8, align 4
  %97 = call ptr @proto_tree_add_item(ptr noundef %93, i32 noundef %94, ptr noundef %95, i32 noundef %96, i32 noundef 8, i32 noundef 0)
  %98 = load i32, ptr %8, align 4
  %99 = add i32 %98, 8
  store i32 %99, ptr %8, align 4
  %100 = call zeroext i8 @get_ndmp_protocol_version()
  %101 = zext i8 %100 to i32
  %102 = icmp eq i32 %101, 2
  br i1 %102, label %103, label %105

103:                                              ; preds = %29
  %104 = load i32, ptr %8, align 4
  store i32 %104, ptr %6, align 4
  br label %112

105:                                              ; preds = %29
  %106 = load ptr, ptr %7, align 8
  %107 = load i32, ptr %8, align 4
  %108 = load ptr, ptr %9, align 8
  %109 = load ptr, ptr %10, align 8
  %110 = call i32 @dissect_ndmp_addr(ptr noundef %106, i32 noundef %107, ptr noundef %108, ptr noundef %109)
  store i32 %110, ptr %8, align 4
  %111 = load i32, ptr %8, align 4
  store i32 %111, ptr %6, align 4
  br label %112

112:                                              ; preds = %105, %103
  %113 = load i32, ptr %6, align 4
  ret i32 %113
}