; Function Attrs: null_pointer_is_valid sspstrong uwtable
define internal i32 @dissect_mover_get_state_reply(ptr noundef %0, i32 noundef %1, ptr noundef %2, ptr noundef %3, i32 %4) #0 {
  %6 = tail call i32 @tvb_get_ntohl(ptr noundef %0, i32 noundef %1)
  %7 = load i32, ptr @hf_ndmp_error, align 4
  %8 = tail call ptr @proto_tree_add_item(ptr noundef %3, i32 noundef %7, ptr noundef %0, i32 noundef %1, i32 noundef 4, i32 noundef 0)
  %.not.i = icmp eq i32 %6, 0
  br i1 %.not.i, label %dissect_error.exit, label %9

9:                                                ; preds = %5
  %10 = getelementptr inbounds nuw i8, ptr %2, i64 8
  %11 = load ptr, ptr %10, align 8
  %12 = tail call ptr @val_to_str(i32 noundef %6, ptr noundef nonnull @error_vals, ptr noundef nonnull @.str.750)
  tail call void (ptr, i32, ptr, ...) @col_append_fstr(ptr noundef %11, i32 noundef 25, ptr noundef nonnull @.str.749, ptr noundef %12)
  br label %dissect_error.exit

dissect_error.exit:                               ; preds = %5, %9
  %13 = add i32 %1, 4
  %14 = load ptr, ptr @ndmp_conv_data, align 8
  %.not.i56 = icmp eq ptr %14, null
  br i1 %.not.i56, label %18, label %15

15:                                               ; preds = %dissect_error.exit
  %16 = load i8, ptr %14, align 8
  %17 = icmp eq i8 %16, 0
  br i1 %17, label %18, label %get_ndmp_protocol_version.exit

18:                                               ; preds = %15, %dissect_error.exit
  %19 = load i32, ptr @ndmp_default_protocol_version, align 4
  %20 = trunc i32 %19 to i8
  br label %get_ndmp_protocol_version.exit

get_ndmp_protocol_version.exit:                   ; preds = %15, %18
  %.0.i = phi i8 [ %20, %18 ], [ %16, %15 ]
  %21 = icmp ugt i8 %.0.i, 3
  br i1 %21, label %22, label %26

22:                                               ; preds = %get_ndmp_protocol_version.exit
  %23 = load i32, ptr @hf_ndmp_mover_mode, align 4
  %24 = tail call ptr @proto_tree_add_item(ptr noundef %3, i32 noundef %23, ptr noundef %0, i32 noundef %13, i32 noundef 4, i32 noundef 0)
  %25 = add i32 %1, 8
  br label %26

26:                                               ; preds = %22, %get_ndmp_protocol_version.exit
  %.055 = phi i32 [ %25, %22 ], [ %13, %get_ndmp_protocol_version.exit ]
  %27 = load i32, ptr @hf_ndmp_mover_state, align 4
  %28 = tail call ptr @proto_tree_add_item(ptr noundef %3, i32 noundef %27, ptr noundef %0, i32 noundef %.055, i32 noundef 4, i32 noundef 0)
  %29 = add i32 %.055, 4
  %30 = load i32, ptr @hf_ndmp_mover_pause, align 4
  %31 = tail call ptr @proto_tree_add_item(ptr noundef %3, i32 noundef %30, ptr noundef %0, i32 noundef %29, i32 noundef 4, i32 noundef 0)
  %32 = add i32 %.055, 8
  %33 = load i32, ptr @hf_ndmp_halt, align 4
  %34 = tail call ptr @proto_tree_add_item(ptr noundef %3, i32 noundef %33, ptr noundef %0, i32 noundef %32, i32 noundef 4, i32 noundef 0)
  %35 = add i32 %.055, 12
  %36 = load i32, ptr @hf_ndmp_record_size, align 4
  %37 = tail call ptr @proto_tree_add_item(ptr noundef %3, i32 noundef %36, ptr noundef %0, i32 noundef %35, i32 noundef 4, i32 noundef 0)
  %38 = add i32 %.055, 16
  %39 = load i32, ptr @hf_ndmp_record_num, align 4
  %40 = tail call ptr @proto_tree_add_item(ptr noundef %3, i32 noundef %39, ptr noundef %0, i32 noundef %38, i32 noundef 4, i32 noundef 0)
  %41 = add i32 %.055, 20
  %42 = load i32, ptr @hf_ndmp_data_written, align 4
  %43 = tail call ptr @proto_tree_add_item(ptr noundef %3, i32 noundef %42, ptr noundef %0, i32 noundef %41, i32 noundef 8, i32 noundef 0)
  %44 = add i32 %.055, 28
  %45 = load i32, ptr @hf_ndmp_seek_position, align 4
  %46 = tail call ptr @proto_tree_add_item(ptr noundef %3, i32 noundef %45, ptr noundef %0, i32 noundef %44, i32 noundef 8, i32 noundef 0)
  %47 = add i32 %.055, 36
  %48 = load i32, ptr @hf_ndmp_bytes_left_to_read, align 4
  %49 = tail call ptr @proto_tree_add_item(ptr noundef %3, i32 noundef %48, ptr noundef %0, i32 noundef %47, i32 noundef 8, i32 noundef 0)
  %50 = add i32 %.055, 44
  %51 = load i32, ptr @hf_ndmp_window_offset, align 4
  %52 = tail call ptr @proto_tree_add_item(ptr noundef %3, i32 noundef %51, ptr noundef %0, i32 noundef %50, i32 noundef 8, i32 noundef 0)
  %53 = add i32 %.055, 52
  %54 = load i32, ptr @hf_ndmp_window_length, align 4
  %55 = tail call ptr @proto_tree_add_item(ptr noundef %3, i32 noundef %54, ptr noundef %0, i32 noundef %53, i32 noundef 8, i32 noundef 0)
  %56 = add i32 %.055, 60
  %57 = load ptr, ptr @ndmp_conv_data, align 8
  %.not.i57 = icmp eq ptr %57, null
  br i1 %.not.i57, label %61, label %58

58:                                               ; preds = %26
  %59 = load i8, ptr %57, align 8
  %60 = icmp eq i8 %59, 0
  br i1 %60, label %61, label %get_ndmp_protocol_version.exit59

61:                                               ; preds = %58, %26
  %62 = load i32, ptr @ndmp_default_protocol_version, align 4
  %63 = trunc i32 %62 to i8
  br label %get_ndmp_protocol_version.exit59

get_ndmp_protocol_version.exit59:                 ; preds = %58, %61
  %.0.i58 = phi i8 [ %63, %61 ], [ %59, %58 ]
  %64 = icmp eq i8 %.0.i58, 2
  br i1 %64, label %67, label %65

65:                                               ; preds = %get_ndmp_protocol_version.exit59
  %66 = tail call fastcc i32 @dissect_ndmp_addr(ptr noundef %0, i32 noundef %56, ptr noundef %2, ptr noundef %3)
  br label %67

67:                                               ; preds = %get_ndmp_protocol_version.exit59, %65
  %.0 = phi i32 [ %66, %65 ], [ %56, %get_ndmp_protocol_version.exit59 ]
  ret i32 %.0
}